; ModuleID = '40/1528.c'
source_filename = "40/1528.c"
target datalayout = "e-m:e-p270:32:32-p271:32:32-p272:64:64-i64:64-f80:128-n8:16:32:64-S128"
target triple = "x86_64-pc-linux-gnu"

@.str = private unnamed_addr constant [16 x i8] c"%lf%lf%lf%lf%lf\00", align 1
@.str.1 = private unnamed_addr constant [6 x i8] c"%.4lf\00", align 1
@.str.2 = private unnamed_addr constant [14 x i8] c"Invalid input\00", align 1

; Function Attrs: noinline nounwind uwtable
define dso_local double @mianji(double %0, double %1, double %2, double %3, double %4) #0 {
  %6 = alloca double, align 8
  %7 = alloca double, align 8
  %8 = alloca double, align 8
  %9 = alloca double, align 8
  %10 = alloca double, align 8
  %11 = alloca double, align 8
  %12 = alloca double, align 8
  %13 = alloca double, align 8
  store double %0, double* %6, align 8
  store double %1, double* %7, align 8
  store double %2, double* %8, align 8
  store double %3, double* %9, align 8
  store double %4, double* %10, align 8
  %14 = load double, double* %6, align 8
  %15 = load double, double* %7, align 8
  %16 = fadd double %14, %15
  %17 = load double, double* %8, align 8
  %18 = fadd double %16, %17
  %19 = load double, double* %9, align 8
  %20 = fadd double %18, %19
  %21 = fdiv double %20, 2.000000e+00
  store double %21, double* %12, align 8
  %22 = load double, double* %10, align 8
  %23 = fdiv double %22, 1.800000e+02
  %24 = fmul double %23, 1.000000e+02
  store double %24, double* %13, align 8
  %25 = load double, double* %12, align 8
  %26 = load double, double* %6, align 8
  %27 = fsub double %25, %26
  %28 = load double, double* %12, align 8
  %29 = load double, double* %7, align 8
  %30 = fsub double %28, %29
  %31 = fmul double %27, %30
  %32 = load double, double* %12, align 8
  %33 = load double, double* %8, align 8
  %34 = fsub double %32, %33
  %35 = fmul double %31, %34
  %36 = load double, double* %12, align 8
  %37 = load double, double* %9, align 8
  %38 = fsub double %36, %37
  %39 = fmul double %35, %38
  %40 = load double, double* %6, align 8
  %41 = load double, double* %7, align 8
  %42 = fmul double %40, %41
  %43 = load double, double* %8, align 8
  %44 = fmul double %42, %43
  %45 = load double, double* %9, align 8
  %46 = fmul double %44, %45
  %47 = load double, double* %13, align 8
  %48 = fdiv double %47, 2.000000e+00
  %49 = call double @cos(double %48) #3
  %50 = fmul double %46, %49
  %51 = load double, double* %13, align 8
  %52 = fdiv double %51, 2.000000e+00
  %53 = call double @cos(double %52) #3
  %54 = fmul double %50, %53
  %55 = fsub double %39, %54
  %56 = call double @sqrt(double %55) #3
  store double %56, double* %11, align 8
  %57 = load double, double* %11, align 8
  ret double %57
}

; Function Attrs: nounwind
declare dso_local double @sqrt(double) #1

; Function Attrs: nounwind
declare dso_local double @cos(double) #1

; Function Attrs: noinline nounwind uwtable
define dso_local i32 @main() #0 {
  %1 = alloca i32, align 4
  %2 = alloca double, align 8
  %3 = alloca double, align 8
  %4 = alloca double, align 8
  %5 = alloca double, align 8
  %6 = alloca double, align 8
  %7 = alloca double, align 8
  %8 = alloca double, align 8
  %9 = alloca double, align 8
  store i32 0, i32* %1, align 4
  %10 = call i32 (i8*, ...) @__isoc99_scanf(i8* getelementptr inbounds ([16 x i8], [16 x i8]* @.str, i64 0, i64 0), double* %3, double* %4, double* %5, double* %6, double* %7)
  %11 = load double, double* %3, align 8
  %12 = load double, double* %4, align 8
  %13 = fadd double %11, %12
  %14 = load double, double* %5, align 8
  %15 = fadd double %13, %14
  %16 = load double, double* %6, align 8
  %17 = fadd double %15, %16
  %18 = fdiv double %17, 2.000000e+00
  store double %18, double* %8, align 8
  %19 = load double, double* %7, align 8
  %20 = fdiv double %19, 1.800000e+02
  %21 = fmul double %20, 1.000000e+02
  store double %21, double* %9, align 8
  %22 = load double, double* %8, align 8
  %23 = load double, double* %3, align 8
  %24 = fsub double %22, %23
  %25 = load double, double* %8, align 8
  %26 = load double, double* %4, align 8
  %27 = fsub double %25, %26
  %28 = fmul double %24, %27
  %29 = load double, double* %8, align 8
  %30 = load double, double* %5, align 8
  %31 = fsub double %29, %30
  %32 = fmul double %28, %31
  %33 = load double, double* %8, align 8
  %34 = load double, double* %6, align 8
  %35 = fsub double %33, %34
  %36 = fmul double %32, %35
  %37 = load double, double* %3, align 8
  %38 = load double, double* %4, align 8
  %39 = fmul double %37, %38
  %40 = load double, double* %5, align 8
  %41 = fmul double %39, %40
  %42 = load double, double* %6, align 8
  %43 = fmul double %41, %42
  %44 = load double, double* %9, align 8
  %45 = fdiv double %44, 2.000000e+00
  %46 = call double @cos(double %45) #3
  %47 = fmul double %43, %46
  %48 = load double, double* %9, align 8
  %49 = fdiv double %48, 2.000000e+00
  %50 = call double @cos(double %49) #3
  %51 = fmul double %47, %50
  %52 = fsub double %36, %51
  %53 = fcmp oge double %52, 0.000000e+00
  br i1 %53, label %54, label %63

54:                                               ; preds = %0
  %55 = load double, double* %3, align 8
  %56 = load double, double* %4, align 8
  %57 = load double, double* %5, align 8
  %58 = load double, double* %6, align 8
  %59 = load double, double* %7, align 8
  %60 = call double @mianji(double %55, double %56, double %57, double %58, double %59)
  store double %60, double* %2, align 8
  %61 = load double, double* %2, align 8
  %62 = call i32 (i8*, ...) @printf(i8* getelementptr inbounds ([6 x i8], [6 x i8]* @.str.1, i64 0, i64 0), double %61)
  br label %99

63:                                               ; preds = %0
  %64 = load double, double* %8, align 8
  %65 = load double, double* %3, align 8
  %66 = fsub double %64, %65
  %67 = load double, double* %8, align 8
  %68 = load double, double* %4, align 8
  %69 = fsub double %67, %68
  %70 = fmul double %66, %69
  %71 = load double, double* %8, align 8
  %72 = load double, double* %5, align 8
  %73 = fsub double %71, %72
  %74 = fmul double %70, %73
  %75 = load double, double* %8, align 8
  %76 = load double, double* %6, align 8
  %77 = fsub double %75, %76
  %78 = fmul double %74, %77
  %79 = load double, double* %3, align 8
  %80 = load double, double* %4, align 8
  %81 = fmul double %79, %80
  %82 = load double, double* %5, align 8
  %83 = fmul double %81, %82
  %84 = load double, double* %6, align 8
  %85 = fmul double %83, %84
  %86 = load double, double* %9, align 8
  %87 = fdiv double %86, 2.000000e+00
  %88 = call double @cos(double %87) #3
  %89 = fmul double %85, %88
  %90 = load double, double* %9, align 8
  %91 = fdiv double %90, 2.000000e+00
  %92 = call double @cos(double %91) #3
  %93 = fmul double %89, %92
  %94 = fsub double %78, %93
  %95 = fcmp olt double %94, 0.000000e+00
  br i1 %95, label %96, label %98

96:                                               ; preds = %63
  %97 = call i32 (i8*, ...) @printf(i8* getelementptr inbounds ([14 x i8], [14 x i8]* @.str.2, i64 0, i64 0))
  br label %98

98:                                               ; preds = %96, %63
  br label %99

99:                                               ; preds = %98, %54
  ret i32 0
}

declare dso_local i32 @__isoc99_scanf(i8*, ...) #2

declare dso_local i32 @printf(i8*, ...) #2


!llvm.module.flags = !{!0}
!llvm.ident = !{!1}

!0 = !{i32 1, !"wchar_size", i32 4}
!1 = !{!"clang version 10.0.0-4ubuntu1 "}
